target datalayout = "e-m:e-p270:32:32-p271:32:32-p272:64:64-i64:64-i128:128-f80:128-n8:16:32:64-S128"
target triple = "x86_64-unknown-linux-gnu"

%"class.base::BasicStringPiece" = type { ptr, i64 }
%"class.std::__cxx11::basic_string" = type { %"struct.std::__cxx11::basic_string<char>::_Alloc_hider", i64, %union.anon }
%"struct.std::__cxx11::basic_string<char>::_Alloc_hider" = type { ptr }
%union.anon = type { i64, [8 x i8] }
%"class.std::vector.45" = type { %"struct.std::_Vector_base.46" }
%"struct.std::_Vector_base.46" = type { %"struct.std::_Vector_base<std::__cxx11::basic_string<char>, std::allocator<std::__cxx11::basic_string<char>>>::_Vector_impl" }
%"struct.std::_Vector_base<std::__cxx11::basic_string<char>, std::allocator<std::__cxx11::basic_string<char>>>::_Vector_impl" = type { %"struct.std::_Vector_base<std::__cxx11::basic_string<char>, std::allocator<std::__cxx11::basic_string<char>>>::_Vector_impl_data" }
%"struct.std::_Vector_base<std::__cxx11::basic_string<char>, std::allocator<std::__cxx11::basic_string<char>>>::_Vector_impl_data" = type { ptr, ptr, ptr }
%"class.base::subtle::RefCountedBase" = type { i32 }
%class.scoped_refptr.173 = type { ptr }
%"struct.net::ProofSource::Chain" = type { ptr, %"class.base::RefCounted.219", %"class.std::vector.45" }
%"class.base::RefCounted.219" = type { %"class.base::subtle::RefCountedBase" }

; Function Attrs: mustprogress nounwind uwtable
define linkonce_odr dso_local noundef ptr @_ZNK13scoped_refptrIN3net11ProofSource5ChainEEptEv(ptr noundef nonnull align 8 dereferenceable(8) %this) #3 comdat align 2 {
entry:
  %this.addr = alloca ptr, align 8
  store ptr %this, ptr %this.addr, align 8
  %this1 = load ptr, ptr %this.addr, align 8
  %ptr_ = getelementptr inbounds %class.scoped_refptr.173, ptr %this1, i32 0, i32 0
  %0 = load ptr, ptr %ptr_, align 8
  ret ptr %0
}

; Function Attrs: mustprogress uwtable
define dso_local void @_ZN3net22QuicCryptoServerConfig13CompressChainEPNS_24QuicCompressedCertsCacheERK13scoped_refptrINS_11ProofSource5ChainEERKNSt7__cxx1112basic_stringIcSt11char_traitsIcESaIcEEESG_PKNS_14CommonCertSetsE(ptr noalias sret(%"class.std::__cxx11::basic_string") align 8 %agg.result, ptr noundef %compressed_certs_cache, ptr noundef nonnull align 8 dereferenceable(8) %chain, ptr noundef nonnull align 8 dereferenceable(32) %client_common_set_hashes, ptr noundef nonnull align 8 dereferenceable(32) %client_cached_cert_hashes, ptr noundef %common_sets) #0 align 2 personality ptr @__gxx_personality_v0 {
entry:
  %result.ptr = alloca ptr, align 8
  %compressed_certs_cache.addr = alloca ptr, align 8
  %chain.addr = alloca ptr, align 8
  %client_common_set_hashes.addr = alloca ptr, align 8
  %client_cached_cert_hashes.addr = alloca ptr, align 8
  %common_sets.addr = alloca ptr, align 8
  %cached_value = alloca ptr, align 8
  %nrvo = alloca i1, align 1
  %agg.tmp = alloca %"class.base::BasicStringPiece", align 8
  %agg.tmp2 = alloca %"class.base::BasicStringPiece", align 8
  %exn.slot = alloca ptr, align 8
  %ehselector.slot = alloca i32, align 4
  store ptr %agg.result, ptr %result.ptr, align 8
  store ptr %compressed_certs_cache, ptr %compressed_certs_cache.addr, align 8
  store ptr %chain, ptr %chain.addr, align 8
  store ptr %client_common_set_hashes, ptr %client_common_set_hashes.addr, align 8
  store ptr %client_cached_cert_hashes, ptr %client_cached_cert_hashes.addr, align 8
  store ptr %common_sets, ptr %common_sets.addr, align 8
  %0 = load ptr, ptr %compressed_certs_cache.addr, align 8
  %1 = load ptr, ptr %chain.addr, align 8
  %2 = load ptr, ptr %client_common_set_hashes.addr, align 8
  %3 = load ptr, ptr %client_cached_cert_hashes.addr, align 8
  %call = call noundef ptr @_ZN3net24QuicCompressedCertsCache17GetCompressedCertERK13scoped_refptrINS_11ProofSource5ChainEERKNSt7__cxx1112basic_stringIcSt11char_traitsIcESaIcEEESE_(ptr noundef nonnull align 8 dereferenceable(88) %0, ptr noundef nonnull align 8 dereferenceable(8) %1, ptr noundef nonnull align 8 dereferenceable(32) %2, ptr noundef nonnull align 8 dereferenceable(32) %3)
  store ptr %call, ptr %cached_value, align 8
  %4 = load ptr, ptr %cached_value, align 8
  %tobool = icmp ne ptr %4, null
  br i1 %tobool, label %if.then, label %if.end

if.then:                                          ; preds = %entry
  %5 = load ptr, ptr %cached_value, align 8
  call void @_ZNSt7__cxx1112basic_stringIcSt11char_traitsIcESaIcEEC1ERKS4_(ptr noundef nonnull align 8 dereferenceable(32) %agg.result, ptr noundef nonnull align 8 dereferenceable(32) %5)
  br label %return

if.end:                                           ; preds = %entry
  store i1 false, ptr %nrvo, align 1
  %6 = load ptr, ptr %chain.addr, align 8
  %call1 = call noundef ptr @_ZNK13scoped_refptrIN3net11ProofSource5ChainEEptEv(ptr noundef nonnull align 8 dereferenceable(8) %6)
  %certs = getelementptr inbounds %"struct.net::ProofSource::Chain", ptr %call1, i32 0, i32 2
  %7 = load ptr, ptr %client_common_set_hashes.addr, align 8
  call void @_ZN4base16BasicStringPieceINSt7__cxx1112basic_stringIcSt11char_traitsIcESaIcEEEEC1ERKS6_(ptr noundef nonnull align 8 dereferenceable(16) %agg.tmp, ptr noundef nonnull align 8 dereferenceable(32) %7)
  %8 = load ptr, ptr %client_common_set_hashes.addr, align 8
  call void @_ZN4base16BasicStringPieceINSt7__cxx1112basic_stringIcSt11char_traitsIcESaIcEEEEC1ERKS6_(ptr noundef nonnull align 8 dereferenceable(16) %agg.tmp2, ptr noundef nonnull align 8 dereferenceable(32) %8)
  %9 = load ptr, ptr %common_sets.addr, align 8
  %10 = getelementptr inbounds { ptr, i64 }, ptr %agg.tmp, i32 0, i32 0
  %11 = load ptr, ptr %10, align 8
  %12 = getelementptr inbounds { ptr, i64 }, ptr %agg.tmp, i32 0, i32 1
  %13 = load i64, ptr %12, align 8
  %14 = getelementptr inbounds { ptr, i64 }, ptr %agg.tmp2, i32 0, i32 0
  %15 = load ptr, ptr %14, align 8
  %16 = getelementptr inbounds { ptr, i64 }, ptr %agg.tmp2, i32 0, i32 1
  %17 = load i64, ptr %16, align 8
  call void @_ZN3net14CertCompressor13CompressChainERKSt6vectorINSt7__cxx1112basic_stringIcSt11char_traitsIcESaIcEEESaIS7_EEN4base16BasicStringPieceIS7_EESE_PKNS_14CommonCertSetsE(ptr sret(%"class.std::__cxx11::basic_string") align 8 %agg.result, ptr noundef nonnull align 8 dereferenceable(24) %certs, ptr %11, i64 %13, ptr %15, i64 %17, ptr noundef %9)
  %18 = load ptr, ptr %compressed_certs_cache.addr, align 8
  %19 = load ptr, ptr %chain.addr, align 8
  %20 = load ptr, ptr %client_common_set_hashes.addr, align 8
  %21 = load ptr, ptr %client_cached_cert_hashes.addr, align 8
  invoke void @_ZN3net24QuicCompressedCertsCache6InsertERK13scoped_refptrINS_11ProofSource5ChainEERKNSt7__cxx1112basic_stringIcSt11char_traitsIcESaIcEEESE_SE_(ptr noundef nonnull align 8 dereferenceable(88) %18, ptr noundef nonnull align 8 dereferenceable(8) %19, ptr noundef nonnull align 8 dereferenceable(32) %20, ptr noundef nonnull align 8 dereferenceable(32) %21, ptr noundef nonnull align 8 dereferenceable(32) %agg.result)
          to label %invoke.cont unwind label %lpad

invoke.cont:                                      ; preds = %if.end
  store i1 true, ptr %nrvo, align 1
  %nrvo.val = load i1, ptr %nrvo, align 1
  br i1 %nrvo.val, label %nrvo.skipdtor, label %nrvo.unused

lpad:                                             ; preds = %if.end
  %22 = landingpad { ptr, i32 }
          cleanup
  %23 = extractvalue { ptr, i32 } %22, 0
  store ptr %23, ptr %exn.slot, align 8
  %24 = extractvalue { ptr, i32 } %22, 1
  store i32 %24, ptr %ehselector.slot, align 4
  call void @_ZNSt7__cxx1112basic_stringIcSt11char_traitsIcESaIcEED1Ev(ptr noundef nonnull align 8 dereferenceable(32) %agg.result) #14
  br label %eh.resume

nrvo.unused:                                      ; preds = %invoke.cont
  call void @_ZNSt7__cxx1112basic_stringIcSt11char_traitsIcESaIcEED1Ev(ptr noundef nonnull align 8 dereferenceable(32) %agg.result) #14
  br label %nrvo.skipdtor

nrvo.skipdtor:                                    ; preds = %nrvo.unused, %invoke.cont
  br label %return

return:                                           ; preds = %nrvo.skipdtor, %if.then
  ret void

eh.resume:                                        ; preds = %lpad
  %exn = load ptr, ptr %exn.slot, align 8
  %sel = load i32, ptr %ehselector.slot, align 4
  %lpad.val = insertvalue { ptr, i32 } poison, ptr %exn, 0
  %lpad.val3 = insertvalue { ptr, i32 } %lpad.val, i32 %sel, 1
  resume { ptr, i32 } %lpad.val3
}