; Function Attrs: mustprogress uwtable
define dso_local void @_ZN3net22QuicCryptoServerConfig13CompressChainEPNS_24QuicCompressedCertsCacheERK13scoped_refptrINS_11ProofSource5ChainEERKNSt7__cxx1112basic_stringIcSt11char_traitsIcESaIcEEESG_PKNS_14CommonCertSetsE(ptr noalias sret(%"class.std::__cxx11::basic_string") align 8 %agg.result, ptr noundef nonnull %compressed_certs_cache, ptr noundef nonnull align 8 dereferenceable(8) %chain, ptr noundef nonnull align 8 dereferenceable(32) %client_common_set_hashes, ptr noundef nonnull align 8 dereferenceable(32) %client_cached_cert_hashes, ptr noundef %common_sets) local_unnamed_addr #0 align 2 personality ptr @__gxx_personality_v0 {
entry:
  %agg.tmp = alloca %"class.base::BasicStringPiece", align 8
  %agg.tmp2 = alloca %"class.base::BasicStringPiece", align 8
  %call = tail call noundef ptr @_ZN3net24QuicCompressedCertsCache17GetCompressedCertERK13scoped_refptrINS_11ProofSource5ChainEERKNSt7__cxx1112basic_stringIcSt11char_traitsIcESaIcEEESE_(ptr noundef nonnull align 8 dereferenceable(88) %compressed_certs_cache, ptr noundef nonnull align 8 dereferenceable(8) %chain, ptr noundef nonnull align 8 dereferenceable(32) %client_common_set_hashes, ptr noundef nonnull align 8 dereferenceable(32) %client_cached_cert_hashes)
  %tobool.not = icmp eq ptr %call, null
  br i1 %tobool.not, label %if.end, label %if.then

if.then:                                          ; preds = %entry
  tail call void @_ZNSt7__cxx1112basic_stringIcSt11char_traitsIcESaIcEEC1ERKS4_(ptr noundef nonnull align 8 dereferenceable(32) %agg.result, ptr noundef nonnull align 8 dereferenceable(32) %call)
  br label %return

if.end:                                           ; preds = %entry
  %0 = load ptr, ptr %chain, align 8
  %certs = getelementptr inbounds i8, ptr %0, i64 16
  call void @_ZN4base16BasicStringPieceINSt7__cxx1112basic_stringIcSt11char_traitsIcESaIcEEEEC1ERKS6_(ptr noundef nonnull align 8 dereferenceable(16) %agg.tmp, ptr noundef nonnull align 8 dereferenceable(32) %client_common_set_hashes)
  call void @_ZN4base16BasicStringPieceINSt7__cxx1112basic_stringIcSt11char_traitsIcESaIcEEEEC1ERKS6_(ptr noundef nonnull align 8 dereferenceable(16) %agg.tmp2, ptr noundef nonnull align 8 dereferenceable(32) %client_common_set_hashes)
  %1 = load ptr, ptr %agg.tmp, align 8
  %2 = getelementptr inbounds i8, ptr %agg.tmp, i64 8
  %3 = load i64, ptr %2, align 8
  %4 = load ptr, ptr %agg.tmp2, align 8
  %5 = getelementptr inbounds i8, ptr %agg.tmp2, i64 8
  %6 = load i64, ptr %5, align 8
  call void @_ZN3net14CertCompressor13CompressChainERKSt6vectorINSt7__cxx1112basic_stringIcSt11char_traitsIcESaIcEEESaIS7_EEN4base16BasicStringPieceIS7_EESE_PKNS_14CommonCertSetsE(ptr sret(%"class.std::__cxx11::basic_string") align 8 %agg.result, ptr noundef nonnull align 8 dereferenceable(24) %certs, ptr %1, i64 %3, ptr %4, i64 %6, ptr noundef %common_sets)
  invoke void @_ZN3net24QuicCompressedCertsCache6InsertERK13scoped_refptrINS_11ProofSource5ChainEERKNSt7__cxx1112basic_stringIcSt11char_traitsIcESaIcEEESE_SE_(ptr noundef nonnull align 8 dereferenceable(88) %compressed_certs_cache, ptr noundef nonnull align 8 dereferenceable(8) %chain, ptr noundef nonnull align 8 dereferenceable(32) %client_common_set_hashes, ptr noundef nonnull align 8 dereferenceable(32) %client_cached_cert_hashes, ptr noundef nonnull align 8 dereferenceable(32) %agg.result)
          to label %return unwind label %lpad

lpad:                                             ; preds = %if.end
  %7 = landingpad { ptr, i32 }
          cleanup
  call void @_ZNSt7__cxx1112basic_stringIcSt11char_traitsIcESaIcEED1Ev(ptr noundef nonnull align 8 dereferenceable(32) %agg.result) #20
  resume { ptr, i32 } %7

return:                                           ; preds = %if.end, %if.then
  ret void
}